; Function Attrs: nounwind uwtable
define i32 @BIO_recvmmsg(ptr noundef %0, ptr noundef %1, i64 noundef %2, i64 noundef %3, i64 noundef %4, ptr noundef %5) local_unnamed_addr #0 {
  %7 = alloca %struct.bio_mmsg_cb_args_st, align 8
  call void @llvm.lifetime.start.p0(i64 40, ptr nonnull %7) #14
  %8 = icmp eq ptr %0, null
  br i1 %8, label %9, label %10

9:                                                ; preds = %6
  store i64 0, ptr %5, align 8, !tbaa !32
  tail call void @ERR_new() #14
  tail call void @ERR_set_debug(ptr noundef nonnull @.str, i32 noundef 450, ptr noundef nonnull @__func__.BIO_recvmmsg) #14
  tail call void (i32, i32, ptr, ...) @ERR_set_error(i32 noundef 32, i32 noundef 786690, ptr noundef null) #14
  br label %60

10:                                               ; preds = %6
  %11 = getelementptr inbounds nuw i8, ptr %0, i64 8
  %12 = load ptr, ptr %11, align 8, !tbaa !17
  %13 = icmp eq ptr %12, null
  br i1 %13, label %18, label %14

14:                                               ; preds = %10
  %15 = getelementptr inbounds nuw i8, ptr %12, i64 104
  %16 = load ptr, ptr %15, align 8, !tbaa !45
  %17 = icmp eq ptr %16, null
  br i1 %17, label %18, label %19

18:                                               ; preds = %14, %10
  store i64 0, ptr %5, align 8, !tbaa !32
  tail call void @ERR_new() #14
  tail call void @ERR_set_debug(ptr noundef nonnull @.str, i32 noundef 456, ptr noundef nonnull @__func__.BIO_recvmmsg) #14
  tail call void (i32, i32, ptr, ...) @ERR_set_error(i32 noundef 32, i32 noundef 121, ptr noundef null) #14
  br label %60

19:                                               ; preds = %14
  %20 = getelementptr inbounds nuw i8, ptr %0, i64 16
  %21 = load ptr, ptr %20, align 8, !tbaa !23
  %.not = icmp eq ptr %21, null
  %22 = getelementptr inbounds nuw i8, ptr %0, i64 24
  %23 = load ptr, ptr %22, align 8, !tbaa !24
  br i1 %.not, label %24, label %29

24:                                               ; preds = %19
  %.not32 = icmp eq ptr %23, null
  br i1 %.not32, label %39, label %.thread

.thread:                                          ; preds = %24
  store ptr %1, ptr %7, align 8, !tbaa !37
  %25 = getelementptr inbounds nuw i8, ptr %7, i64 8
  store i64 %2, ptr %25, align 8, !tbaa !41
  %26 = getelementptr inbounds nuw i8, ptr %7, i64 16
  store i64 %3, ptr %26, align 8, !tbaa !42
  %27 = getelementptr inbounds nuw i8, ptr %7, i64 24
  store i64 %4, ptr %27, align 8, !tbaa !43
  %28 = getelementptr inbounds nuw i8, ptr %7, i64 32
  store ptr %5, ptr %28, align 8, !tbaa !44
  br label %34

29:                                               ; preds = %19
  store ptr %1, ptr %7, align 8, !tbaa !37
  %30 = getelementptr inbounds nuw i8, ptr %7, i64 8
  store i64 %2, ptr %30, align 8, !tbaa !41
  %31 = getelementptr inbounds nuw i8, ptr %7, i64 16
  store i64 %3, ptr %31, align 8, !tbaa !42
  %32 = getelementptr inbounds nuw i8, ptr %7, i64 24
  store i64 %4, ptr %32, align 8, !tbaa !43
  %33 = getelementptr inbounds nuw i8, ptr %7, i64 32
  store ptr %5, ptr %33, align 8, !tbaa !44
  %.not.i = icmp eq ptr %23, null
  br i1 %.not.i, label %36, label %34

34:                                               ; preds = %.thread, %29
  %35 = call i64 %23(ptr noundef nonnull %0, i32 noundef 7, ptr noundef nonnull %7, i64 noundef 0, i32 noundef 0, i64 noundef 0, i32 noundef 1, ptr noundef null) #14
  br label %bio_call_callback.exit

36:                                               ; preds = %29
  %37 = call i64 %21(ptr noundef nonnull %0, i32 noundef 7, ptr noundef nonnull %7, i32 noundef 0, i64 noundef 0, i64 noundef 1) #14
  br label %bio_call_callback.exit

bio_call_callback.exit:                           ; preds = %36, %34
  %.0.i = phi i64 [ %35, %34 ], [ %37, %36 ]
  %38 = icmp eq i64 %.0.i, 0
  br i1 %38, label %60, label %39

39:                                               ; preds = %bio_call_callback.exit, %24
  %40 = getelementptr inbounds nuw i8, ptr %0, i64 40
  %41 = load i32, ptr %40, align 8, !tbaa !22
  %.not33 = icmp eq i32 %41, 0
  br i1 %.not33, label %42, label %43

42:                                               ; preds = %39
  store i64 0, ptr %5, align 8, !tbaa !32
  call void @ERR_new() #14
  call void @ERR_set_debug(ptr noundef nonnull @.str, i32 noundef 475, ptr noundef nonnull @__func__.BIO_recvmmsg) #14
  call void (i32, i32, ptr, ...) @ERR_set_error(i32 noundef 32, i32 noundef 120, ptr noundef null) #14
  br label %60

43:                                               ; preds = %39
  %44 = load ptr, ptr %11, align 8, !tbaa !17
  %45 = getelementptr inbounds nuw i8, ptr %44, i64 104
  %46 = load ptr, ptr %45, align 8, !tbaa !45
  %47 = call i32 %46(ptr noundef nonnull %0, ptr noundef %1, i64 noundef %2, i64 noundef %3, i64 noundef %4, ptr noundef %5) #14
  %48 = sext i32 %47 to i64
  %49 = load ptr, ptr %20, align 8, !tbaa !23
  %.not34 = icmp eq ptr %49, null
  %50 = getelementptr inbounds nuw i8, ptr %0, i64 24
  %51 = load ptr, ptr %50, align 8, !tbaa !24
  %.not35 = icmp eq ptr %51, null
  br i1 %.not34, label %52, label %53

52:                                               ; preds = %43
  br i1 %.not35, label %60, label %.thread43

53:                                               ; preds = %43
  br i1 %.not35, label %55, label %.thread43

.thread43:                                        ; preds = %52, %53
  %54 = call i64 %51(ptr noundef nonnull %0, i32 noundef 135, ptr noundef nonnull %7, i64 noundef %48, i32 noundef 0, i64 noundef 0, i32 noundef %47, ptr noundef null) #14
  br label %bio_call_callback.exit38

55:                                               ; preds = %53
  %56 = icmp slt i32 %47, 1
  call void @llvm.assume(i1 %56)
  %57 = call i64 %49(ptr noundef nonnull %0, i32 noundef 135, ptr noundef nonnull %7, i32 noundef 0, i64 noundef 0, i64 noundef %48) #14
  %58 = icmp slt i64 %57, 1
  call void @llvm.assume(i1 %58)
  br label %bio_call_callback.exit38

bio_call_callback.exit38:                         ; preds = %55, %.thread43
  %.0.i37 = phi i64 [ %54, %.thread43 ], [ %57, %55 ]
  %59 = trunc i64 %.0.i37 to i32
  br label %60

60:                                               ; preds = %52, %bio_call_callback.exit38, %bio_call_callback.exit, %42, %18, %9
  %.029 = phi i32 [ 0, %9 ], [ 0, %18 ], [ 0, %42 ], [ 0, %bio_call_callback.exit ], [ %59, %bio_call_callback.exit38 ], [ %47, %52 ]
  call void @llvm.lifetime.end.p0(i64 40, ptr nonnull %7) #14
  ret i32 %.029
}